; Function Attrs: mustprogress uwtable
define hidden noundef ptr @pj_vandg2(ptr noundef %0) local_unnamed_addr #0 {
  %.not = icmp eq ptr %0, null
  br i1 %.not, label %10, label %2

2:                                                ; preds = %1
  %3 = tail call noalias dereferenceable_or_null(4) ptr @calloc(i64 noundef 1, i64 noundef 4) #7
  %4 = icmp eq ptr %3, null
  br i1 %4, label %5, label %7

5:                                                ; preds = %2
  %6 = tail call noundef ptr @_Z21pj_default_destructorP8PJconstsi(ptr noundef nonnull %0, i32 noundef 4096)
  br label %_Z35pj_projection_specific_setup_vandg2P8PJconsts.exit

7:                                                ; preds = %2
  %8 = getelementptr inbounds nuw i8, ptr %0, i64 88
  store ptr %3, ptr %8, align 8, !tbaa !3
  %9 = getelementptr inbounds nuw i8, ptr %0, i64 104
  store ptr @_ZL16vandg2_s_forward5PJ_LPP8PJconsts, ptr %9, align 8, !tbaa !36
  br label %_Z35pj_projection_specific_setup_vandg2P8PJconsts.exit

10:                                               ; preds = %1
  %11 = tail call noundef ptr @_Z6pj_newv()
  %12 = icmp eq ptr %11, null
  br i1 %12, label %_Z35pj_projection_specific_setup_vandg2P8PJconsts.exit, label %13

13:                                               ; preds = %10
  %14 = getelementptr inbounds nuw i8, ptr %11, i64 8
  store ptr @.str, ptr %14, align 8, !tbaa !37
  %15 = getelementptr inbounds nuw i8, ptr %11, i64 16
  store ptr @_ZL10des_vandg2, ptr %15, align 8, !tbaa !38
  %16 = getelementptr inbounds nuw i8, ptr %11, i64 360
  store i32 1, ptr %16, align 8, !tbaa !39
  %17 = getelementptr inbounds nuw i8, ptr %11, i64 380
  store i32 4, ptr %17, align 4, !tbaa !40
  %18 = getelementptr inbounds nuw i8, ptr %11, i64 384
  store i32 1, ptr %18, align 8, !tbaa !41
  br label %_Z35pj_projection_specific_setup_vandg2P8PJconsts.exit

_Z35pj_projection_specific_setup_vandg2P8PJconsts.exit: ; preds = %7, %5, %10, %13
  %.0 = phi ptr [ %11, %13 ], [ null, %10 ], [ %6, %5 ], [ %0, %7 ]
  ret ptr %.0
}